target datalayout = "e-m:e-p270:32:32-p271:32:32-p272:64:64-i64:64-i128:128-f80:128-n8:16:32:64-S128"
target triple = "x86_64-pc-linux-gnu"

%"class.llvm::StringRef" = type { ptr, i64 }
%"class.llvm::BTFParser" = type { %"class.llvm::StringRef", %"class.llvm::OwningArrayRef", %"class.llvm::DenseMap.2", %"class.llvm::DenseMap.5", %"class.std::vector" }
%"class.llvm::OwningArrayRef" = type { %"class.llvm::MutableArrayRef" }
%"class.llvm::MutableArrayRef" = type { %"class.llvm::ArrayRef" }
%"class.llvm::ArrayRef" = type { ptr, i64 }
%"class.llvm::DenseMap.2" = type <{ ptr, i32, i32, i32, [4 x i8] }>
%"class.llvm::DenseMap.5" = type <{ ptr, i32, i32, i32, [4 x i8] }>
%"class.std::vector" = type { %"struct.std::_Vector_base" }
%"struct.std::_Vector_base" = type { %"struct.std::_Vector_base<const llvm::BTF::CommonType *, std::allocator<const llvm::BTF::CommonType *>>::_Vector_impl" }
%"struct.std::_Vector_base<const llvm::BTF::CommonType *, std::allocator<const llvm::BTF::CommonType *>>::_Vector_impl" = type { %"struct.std::_Vector_base<const llvm::BTF::CommonType *, std::allocator<const llvm::BTF::CommonType *>>::_Vector_impl_data" }
%"struct.std::_Vector_base<const llvm::BTF::CommonType *, std::allocator<const llvm::BTF::CommonType *>>::_Vector_impl_data" = type { ptr, ptr, ptr }

; Function Attrs: mustprogress nounwind uwtable
define linkonce_odr hidden noundef nonnull align 8 dereferenceable(8) ptr @_ZNKSt6vectorIPKN4llvm3BTF10CommonTypeESaIS4_EEixEm(ptr noundef nonnull align 8 dereferenceable(24) %0, i64 noundef %1) #0 comdat align 2 {
  %3 = alloca ptr, align 8
  %4 = alloca i64, align 8
  store ptr %0, ptr %3, align 8
  store i64 %1, ptr %4, align 8
  %5 = load ptr, ptr %3, align 8
  %6 = getelementptr inbounds nuw %"struct.std::_Vector_base", ptr %5, i32 0, i32 0
  %7 = getelementptr inbounds nuw %"struct.std::_Vector_base<const llvm::BTF::CommonType *, std::allocator<const llvm::BTF::CommonType *>>::_Vector_impl_data", ptr %6, i32 0, i32 0
  %8 = load ptr, ptr %7, align 8
  %9 = load i64, ptr %4, align 8
  %10 = getelementptr inbounds ptr, ptr %8, i64 %9
  ret ptr %10
}

; Function Attrs: mustprogress nounwind uwtable
define linkonce_odr hidden noundef i64 @_ZNKSt6vectorIPKN4llvm3BTF10CommonTypeESaIS4_EE4sizeEv(ptr noundef nonnull align 8 dereferenceable(24) %0) #0 comdat align 2 {
  %2 = alloca ptr, align 8
  store ptr %0, ptr %2, align 8
  %3 = load ptr, ptr %2, align 8
  %4 = getelementptr inbounds nuw %"struct.std::_Vector_base", ptr %3, i32 0, i32 0
  %5 = getelementptr inbounds nuw %"struct.std::_Vector_base<const llvm::BTF::CommonType *, std::allocator<const llvm::BTF::CommonType *>>::_Vector_impl_data", ptr %4, i32 0, i32 1
  %6 = load ptr, ptr %5, align 8
  %7 = getelementptr inbounds nuw %"struct.std::_Vector_base", ptr %3, i32 0, i32 0
  %8 = getelementptr inbounds nuw %"struct.std::_Vector_base<const llvm::BTF::CommonType *, std::allocator<const llvm::BTF::CommonType *>>::_Vector_impl_data", ptr %7, i32 0, i32 0
  %9 = load ptr, ptr %8, align 8
  %10 = ptrtoint ptr %6 to i64
  %11 = ptrtoint ptr %9 to i64
  %12 = sub i64 %10, %11
  %13 = sdiv exact i64 %12, 8
  ret i64 %13
}

; Function Attrs: mustprogress nounwind uwtable
define dso_local noundef ptr @_ZNK4llvm9BTFParser8findTypeEj(ptr noundef nonnull align 8 dereferenceable(104) %0, i32 noundef %1) #0 align 2 {
  %3 = alloca ptr, align 8
  %4 = alloca ptr, align 8
  %5 = alloca i32, align 4
  store ptr %0, ptr %4, align 8
  store i32 %1, ptr %5, align 4
  %6 = load ptr, ptr %4, align 8
  %7 = load i32, ptr %5, align 4
  %8 = zext i32 %7 to i64
  %9 = getelementptr inbounds nuw %"class.llvm::BTFParser", ptr %6, i32 0, i32 4
  %10 = call noundef i64 @_ZNKSt6vectorIPKN4llvm3BTF10CommonTypeESaIS4_EE4sizeEv(ptr noundef nonnull align 8 dereferenceable(24) %9) #14
  %11 = icmp ult i64 %8, %10
  br i1 %11, label %12, label %18

12:                                               ; preds = %2
  %13 = getelementptr inbounds nuw %"class.llvm::BTFParser", ptr %6, i32 0, i32 4
  %14 = load i32, ptr %5, align 4
  %15 = zext i32 %14 to i64
  %16 = call noundef nonnull align 8 dereferenceable(8) ptr @_ZNKSt6vectorIPKN4llvm3BTF10CommonTypeESaIS4_EEixEm(ptr noundef nonnull align 8 dereferenceable(24) %13, i64 noundef %15) #14
  %17 = load ptr, ptr %16, align 8
  store ptr %17, ptr %3, align 8
  br label %19

18:                                               ; preds = %2
  store ptr null, ptr %3, align 8
  br label %19

19:                                               ; preds = %18, %12
  %20 = load ptr, ptr %3, align 8
  ret ptr %20
}