; Function Attrs: mustprogress nofree norecurse nosync nounwind willreturn memory(read, inaccessiblemem: none) uwtable
define dso_local noundef ptr @_ZNK4llvm9BTFParser8findTypeEj(ptr noundef nonnull readonly align 8 captures(none) dereferenceable(104) %0, i32 noundef %1) local_unnamed_addr #5 align 2 {
  %3 = zext i32 %1 to i64
  %4 = getelementptr inbounds nuw i8, ptr %0, i64 80
  %5 = getelementptr inbounds nuw i8, ptr %0, i64 88
  %6 = load ptr, ptr %5, align 8
  %7 = load ptr, ptr %4, align 8
  %8 = ptrtoint ptr %6 to i64
  %9 = ptrtoint ptr %7 to i64
  %10 = sub i64 %8, %9
  %11 = ashr exact i64 %10, 3
  %12 = icmp ugt i64 %11, %3
  br i1 %12, label %13, label %16

13:                                               ; preds = %2
  %14 = getelementptr inbounds nuw ptr, ptr %7, i64 %3
  %15 = load ptr, ptr %14, align 8
  br label %16

16:                                               ; preds = %2, %13
  %.0 = phi ptr [ %15, %13 ], [ null, %2 ]
  ret ptr %.0
}